target datalayout = "e-m:e-p270:32:32-p271:32:32-p272:64:64-i64:64-i128:128-f80:128-n8:16:32:64-S128"
target triple = "x86_64-pc-linux-gnu"

%struct.Abc_Frame_t_ = type { ptr, ptr, ptr, ptr, ptr, ptr, ptr, ptr, ptr, ptr, i32, i32, i32, i32, i32, ptr, float, float, i32, i32, ptr, ptr, ptr, double, double, ptr, ptr, ptr, ptr, ptr, ptr, ptr, ptr, ptr, ptr, ptr, ptr, float, ptr, i32, ptr, ptr, ptr, ptr, ptr, i32, i32, i32, i32, i32, i32, ptr, ptr, ptr, ptr, ptr, ptr, i32, i32, ptr, ptr, ptr, ptr, ptr, ptr, ptr, ptr, ptr, ptr, ptr, ptr, ptr, ptr, ptr, ptr, ptr, ptr, ptr, ptr, ptr, ptr, ptr, ptr, ptr, ptr, ptr, ptr, ptr, ptr }

@.str.104 = private unnamed_addr constant [3 x i8] c"-h\00", align 1
@.str.105 = private unnamed_addr constant [16 x i8] c"Empty network.\0A\00", align 1
@.str.106 = private unnamed_addr constant [13 x i8] c"usage: undo\0A\00", align 1
@.str.107 = private unnamed_addr constant [70 x i8] c"         sets the current network to be the previously saved network\0A\00", align 1

; Function Attrs: nounwind uwtable
define internal i32 @CmdCommandUndo(ptr noundef %0, i32 noundef %1, ptr noundef %2) #0 {
  %4 = alloca i32, align 4
  %5 = alloca ptr, align 8
  %6 = alloca i32, align 4
  %7 = alloca ptr, align 8
  store ptr %0, ptr %5, align 8
  store i32 %1, ptr %6, align 4
  store ptr %2, ptr %7, align 8
  %8 = load i32, ptr %6, align 4
  %9 = icmp eq i32 %8, 2
  br i1 %9, label %10, label %17

10:                                               ; preds = %3
  %11 = load ptr, ptr %7, align 8
  %12 = getelementptr inbounds ptr, ptr %11, i64 1
  %13 = load ptr, ptr %12, align 8
  %14 = call i32 @strcmp(ptr noundef %13, ptr noundef @.str.104) #10
  %15 = icmp ne i32 %14, 0
  br i1 %15, label %17, label %16

16:                                               ; preds = %10
  br label %36

17:                                               ; preds = %10, %3
  %18 = load ptr, ptr %5, align 8
  %19 = getelementptr inbounds %struct.Abc_Frame_t_, ptr %18, i32 0, i32 6
  %20 = load ptr, ptr %19, align 8
  %21 = icmp eq ptr %20, null
  br i1 %21, label %22, label %27

22:                                               ; preds = %17
  %23 = load ptr, ptr %5, align 8
  %24 = getelementptr inbounds %struct.Abc_Frame_t_, ptr %23, i32 0, i32 20
  %25 = load ptr, ptr %24, align 8
  %26 = call i32 (ptr, ptr, ...) @fprintf(ptr noundef %25, ptr noundef @.str.105) #9
  store i32 0, ptr %4, align 4
  br label %45

27:                                               ; preds = %17
  %28 = load i32, ptr %6, align 4
  %29 = icmp eq i32 %28, 1
  br i1 %29, label %30, label %35

30:                                               ; preds = %27
  %31 = load ptr, ptr %5, align 8
  %32 = load i32, ptr %6, align 4
  %33 = load ptr, ptr %7, align 8
  %34 = call i32 @CmdCommandRecall(ptr noundef %31, i32 noundef %32, ptr noundef %33)
  store i32 %34, ptr %4, align 4
  br label %45

35:                                               ; preds = %27
  br label %36

36:                                               ; preds = %35, %16
  %37 = load ptr, ptr %5, align 8
  %38 = getelementptr inbounds %struct.Abc_Frame_t_, ptr %37, i32 0, i32 21
  %39 = load ptr, ptr %38, align 8
  %40 = call i32 (ptr, ptr, ...) @fprintf(ptr noundef %39, ptr noundef @.str.106) #9
  %41 = load ptr, ptr %5, align 8
  %42 = getelementptr inbounds %struct.Abc_Frame_t_, ptr %41, i32 0, i32 21
  %43 = load ptr, ptr %42, align 8
  %44 = call i32 (ptr, ptr, ...) @fprintf(ptr noundef %43, ptr noundef @.str.107) #9
  store i32 1, ptr %4, align 4
  br label %45

45:                                               ; preds = %36, %30, %22
  %46 = load i32, ptr %4, align 4
  ret i32 %46
}