; Function Attrs: nounwind uwtable
define internal range(i32 0, 2) i32 @CmdCommandUndo(ptr noundef %0, i32 noundef %1, ptr noundef %2) #0 {
  %4 = icmp eq i32 %1, 2
  br i1 %4, label %sub_0, label %13

sub_0:                                            ; preds = %3
  %5 = getelementptr inbounds nuw i8, ptr %2, i64 8
  %6 = load ptr, ptr %5, align 8
  %7 = load i8, ptr %6, align 1
  %.not12 = icmp eq i8 %7, 45
  br i1 %.not12, label %sub_1, label %.thread

sub_1:                                            ; preds = %sub_0
  %8 = getelementptr inbounds nuw i8, ptr %6, i64 1
  %9 = load i8, ptr %8, align 1
  %.not13 = icmp eq i8 %9, 104
  br i1 %.not13, label %.tail, label %.thread

.tail:                                            ; preds = %sub_1
  %10 = getelementptr inbounds nuw i8, ptr %6, i64 2
  %11 = load i8, ptr %10, align 1
  %12 = icmp eq i8 %11, 0
  br i1 %12, label %.thread11, label %.thread

13:                                               ; preds = %3
  %14 = getelementptr inbounds nuw i8, ptr %0, i64 48
  %15 = load ptr, ptr %14, align 8
  %16 = icmp eq ptr %15, null
  br i1 %16, label %20, label %24

.thread:                                          ; preds = %sub_1, %sub_0, %.tail
  %17 = getelementptr inbounds nuw i8, ptr %0, i64 48
  %18 = load ptr, ptr %17, align 8
  %19 = icmp eq ptr %18, null
  br i1 %19, label %20, label %.thread11

20:                                               ; preds = %.thread, %13
  %21 = getelementptr inbounds nuw i8, ptr %0, i64 128
  %22 = load ptr, ptr %21, align 8
  %23 = tail call i64 @fwrite(ptr nonnull @.str.105, i64 15, i64 1, ptr %22)
  br label %33

24:                                               ; preds = %13
  %25 = icmp eq i32 %1, 1
  br i1 %25, label %26, label %.thread11

26:                                               ; preds = %24
  %27 = tail call i32 @CmdCommandRecall(ptr noundef nonnull %0, i32 noundef 1, ptr noundef %2)
  br label %33

.thread11:                                        ; preds = %.thread, %24, %.tail
  %28 = getelementptr inbounds nuw i8, ptr %0, i64 136
  %29 = load ptr, ptr %28, align 8
  %30 = tail call i64 @fwrite(ptr nonnull @.str.106, i64 12, i64 1, ptr %29)
  %31 = load ptr, ptr %28, align 8
  %32 = tail call i64 @fwrite(ptr nonnull @.str.107, i64 69, i64 1, ptr %31)
  br label %33

33:                                               ; preds = %.thread11, %26, %20
  %.0 = phi i32 [ 0, %20 ], [ %27, %26 ], [ 1, %.thread11 ]
  ret i32 %.0
}